target datalayout = "e-m:e-p270:32:32-p271:32:32-p272:64:64-i64:64-i128:128-f80:128-n8:16:32:64-S128"
target triple = "x86_64-pc-linux-gnu"

%struct.SurfaceDataRasInfo = type { %struct.SurfaceDataBounds, ptr, i32, i32, i32, i32, ptr, ptr, ptr, ptr, ptr, ptr, i32, %union.anon.0 }
%struct.SurfaceDataBounds = type { i32, i32, i32, i32 }
%union.anon.0 = type { ptr, [56 x i8] }

; Function Attrs: nounwind uwtable
define hidden void @Index8GrayToByteGrayScaleConvert(ptr noundef %0, ptr noundef %1, i32 noundef %2, i32 noundef %3, i32 noundef %4, i32 noundef %5, i32 noundef %6, i32 noundef %7, i32 noundef %8, ptr noundef %9, ptr noundef %10, ptr noundef %11, ptr noundef %12) #1 {
  %14 = alloca ptr, align 8
  %15 = alloca ptr, align 8
  %16 = alloca i32, align 4
  %17 = alloca i32, align 4
  %18 = alloca i32, align 4
  %19 = alloca i32, align 4
  %20 = alloca i32, align 4
  %21 = alloca i32, align 4
  %22 = alloca i32, align 4
  %23 = alloca ptr, align 8
  %24 = alloca ptr, align 8
  %25 = alloca ptr, align 8
  %26 = alloca ptr, align 8
  %27 = alloca ptr, align 8
  %28 = alloca ptr, align 8
  %29 = alloca ptr, align 8
  %30 = alloca i32, align 4
  %31 = alloca i32, align 4
  %32 = alloca i32, align 4
  %33 = alloca i32, align 4
  %34 = alloca i32, align 4
  %35 = alloca i32, align 4
  store ptr %0, ptr %14, align 8
  store ptr %1, ptr %15, align 8
  store i32 %2, ptr %16, align 4
  store i32 %3, ptr %17, align 4
  store i32 %4, ptr %18, align 4
  store i32 %5, ptr %19, align 4
  store i32 %6, ptr %20, align 4
  store i32 %7, ptr %21, align 4
  store i32 %8, ptr %22, align 4
  store ptr %9, ptr %23, align 8
  store ptr %10, ptr %24, align 8
  store ptr %11, ptr %25, align 8
  store ptr %12, ptr %26, align 8
  %36 = load ptr, ptr %23, align 8
  %37 = getelementptr inbounds %struct.SurfaceDataRasInfo, ptr %36, i32 0, i32 6
  %38 = load ptr, ptr %37, align 8
  store ptr %38, ptr %27, align 8
  br label %39

39:                                               ; preds = %13
  %40 = load ptr, ptr %15, align 8
  store ptr %40, ptr %29, align 8
  %41 = load ptr, ptr %23, align 8
  %42 = getelementptr inbounds %struct.SurfaceDataRasInfo, ptr %41, i32 0, i32 4
  %43 = load i32, ptr %42, align 8
  store i32 %43, ptr %30, align 4
  %44 = load ptr, ptr %24, align 8
  %45 = getelementptr inbounds %struct.SurfaceDataRasInfo, ptr %44, i32 0, i32 4
  %46 = load i32, ptr %45, align 8
  store i32 %46, ptr %31, align 4
  %47 = load i32, ptr %16, align 4
  %48 = mul i32 %47, 1
  %49 = load i32, ptr %31, align 4
  %50 = sub i32 %49, %48
  store i32 %50, ptr %31, align 4
  br label %51

51:                                               ; preds = %107, %39
  %52 = load i32, ptr %16, align 4
  store i32 %52, ptr %32, align 4
  %53 = load i32, ptr %18, align 4
  store i32 %53, ptr %33, align 4
  %54 = load ptr, ptr %14, align 8
  %55 = ptrtoint ptr %54 to i64
  %56 = load i32, ptr %19, align 4
  %57 = load i32, ptr %22, align 4
  %58 = ashr i32 %56, %57
  %59 = sext i32 %58 to i64
  %60 = load i32, ptr %30, align 4
  %61 = sext i32 %60 to i64
  %62 = mul nsw i64 %59, %61
  %63 = add nsw i64 %55, %62
  %64 = inttoptr i64 %63 to ptr
  store ptr %64, ptr %28, align 8
  br label %65

65:                                               ; preds = %93, %51
  %66 = load i32, ptr %33, align 4
  %67 = load i32, ptr %22, align 4
  %68 = ashr i32 %66, %67
  store i32 %68, ptr %34, align 4
  br label %69

69:                                               ; preds = %65
  %70 = load ptr, ptr %27, align 8
  %71 = load ptr, ptr %28, align 8
  %72 = load i32, ptr %34, align 4
  %73 = sext i32 %72 to i64
  %74 = getelementptr inbounds i8, ptr %71, i64 %73
  %75 = load i8, ptr %74, align 1
  %76 = zext i8 %75 to i64
  %77 = getelementptr inbounds i32, ptr %70, i64 %76
  %78 = load i32, ptr %77, align 4
  %79 = trunc i32 %78 to i8
  %80 = zext i8 %79 to i32
  store i32 %80, ptr %35, align 4
  %81 = load i32, ptr %35, align 4
  %82 = trunc i32 %81 to i8
  %83 = load ptr, ptr %29, align 8
  %84 = getelementptr inbounds i8, ptr %83, i64 0
  store i8 %82, ptr %84, align 1
  br label %85

85:                                               ; preds = %69
  %86 = load ptr, ptr %29, align 8
  %87 = ptrtoint ptr %86 to i64
  %88 = add nsw i64 %87, 1
  %89 = inttoptr i64 %88 to ptr
  store ptr %89, ptr %29, align 8
  %90 = load i32, ptr %20, align 4
  %91 = load i32, ptr %33, align 4
  %92 = add nsw i32 %91, %90
  store i32 %92, ptr %33, align 4
  br label %93

93:                                               ; preds = %85
  %94 = load i32, ptr %32, align 4
  %95 = add i32 %94, -1
  store i32 %95, ptr %32, align 4
  %96 = icmp ugt i32 %95, 0
  br i1 %96, label %65, label %97, !llvm.loop !35

97:                                               ; preds = %93
  %98 = load ptr, ptr %29, align 8
  %99 = ptrtoint ptr %98 to i64
  %100 = load i32, ptr %31, align 4
  %101 = sext i32 %100 to i64
  %102 = add nsw i64 %99, %101
  %103 = inttoptr i64 %102 to ptr
  store ptr %103, ptr %29, align 8
  %104 = load i32, ptr %21, align 4
  %105 = load i32, ptr %19, align 4
  %106 = add nsw i32 %105, %104
  store i32 %106, ptr %19, align 4
  br label %107

107:                                              ; preds = %97
  %108 = load i32, ptr %17, align 4
  %109 = add i32 %108, -1
  store i32 %109, ptr %17, align 4
  %110 = icmp ugt i32 %109, 0
  br i1 %110, label %51, label %111, !llvm.loop !36

111:                                              ; preds = %107
  br label %112

112:                                              ; preds = %111
  ret void
}