; Function Attrs: nofree norecurse nosync nounwind memory(readwrite, inaccessiblemem: none) uwtable
define hidden void @Index8GrayToByteGrayScaleConvert(ptr noundef %0, ptr noundef %1, i32 noundef %2, i32 noundef %3, i32 noundef %4, i32 noundef %5, i32 noundef %6, i32 noundef %7, i32 noundef %8, ptr nocapture noundef readonly %9, ptr nocapture noundef readonly %10, ptr nocapture readnone %11, ptr nocapture readnone %12) #1 {
  %14 = getelementptr inbounds i8, ptr %9, i64 40
  %15 = load ptr, ptr %14, align 8
  %16 = getelementptr inbounds i8, ptr %9, i64 32
  %17 = load i32, ptr %16, align 8
  %18 = getelementptr inbounds i8, ptr %10, i64 32
  %19 = load i32, ptr %18, align 8
  %20 = sub i32 %19, %2
  %21 = sext i32 %20 to i64
  %22 = ptrtoint ptr %0 to i64
  %23 = sext i32 %17 to i64
  br label %24

24:                                               ; preds = %44, %13
  %.030 = phi ptr [ %1, %13 ], [ %46, %44 ]
  %.027 = phi i32 [ %5, %13 ], [ %47, %44 ]
  %.0 = phi i32 [ %3, %13 ], [ %48, %44 ]
  %25 = ashr i32 %.027, %8
  %26 = sext i32 %25 to i64
  %27 = mul nsw i64 %26, %23
  %28 = add nsw i64 %27, %22
  %29 = inttoptr i64 %28 to ptr
  br label %30

30:                                               ; preds = %30, %24
  %.1 = phi ptr [ %.030, %24 ], [ %41, %30 ]
  %.029 = phi i32 [ %2, %24 ], [ %43, %30 ]
  %.028 = phi i32 [ %4, %24 ], [ %42, %30 ]
  %31 = ashr i32 %.028, %8
  %32 = sext i32 %31 to i64
  %33 = getelementptr inbounds i8, ptr %29, i64 %32
  %34 = load i8, ptr %33, align 1
  %35 = zext i8 %34 to i64
  %36 = getelementptr inbounds i32, ptr %15, i64 %35
  %37 = load i32, ptr %36, align 4
  %38 = trunc i32 %37 to i8
  store i8 %38, ptr %.1, align 1
  %39 = ptrtoint ptr %.1 to i64
  %40 = add nsw i64 %39, 1
  %41 = inttoptr i64 %40 to ptr
  %42 = add nsw i32 %.028, %6
  %43 = add i32 %.029, -1
  %.not = icmp eq i32 %43, 0
  br i1 %.not, label %44, label %30, !llvm.loop !33

44:                                               ; preds = %30
  %45 = add nsw i64 %40, %21
  %46 = inttoptr i64 %45 to ptr
  %47 = add nsw i32 %.027, %7
  %48 = add i32 %.0, -1
  %.not32 = icmp eq i32 %48, 0
  br i1 %.not32, label %49, label %24, !llvm.loop !34

49:                                               ; preds = %44
  ret void
}